; ModuleID = '10/2087.c'
source_filename = "10/2087.c"
target datalayout = "e-m:e-p270:32:32-p271:32:32-p272:64:64-i64:64-f80:128-n8:16:32:64-S128"
target triple = "x86_64-pc-linux-gnu"

@.str = private unnamed_addr constant [3 x i8] c"%d\00", align 1

; Function Attrs: noinline nounwind uwtable
define dso_local i32 @main() #0 {
  %1 = alloca i32, align 4
  %2 = alloca i32, align 4
  %3 = alloca i32, align 4
  %4 = alloca i32, align 4
  %5 = alloca i32, align 4
  %6 = alloca i32, align 4
  %7 = alloca i32, align 4
  %8 = alloca i32*, align 8
  %9 = alloca i32*, align 8
  store i32 0, i32* %1, align 4
  %10 = call i32 (i8*, ...) @__isoc99_scanf(i8* getelementptr inbounds ([3 x i8], [3 x i8]* @.str, i64 0, i64 0), i32* %3)
  %11 = load i32, i32* %3, align 4
  %12 = sext i32 %11 to i64
  %13 = mul i64 %12, 4
  %14 = call noalias i8* @malloc(i64 %13) #3
  %15 = bitcast i8* %14 to i32*
  store i32* %15, i32** %8, align 8
  %16 = load i32, i32* %3, align 4
  %17 = sext i32 %16 to i64
  %18 = mul i64 %17, 4
  %19 = call noalias i8* @malloc(i64 %18) #3
  %20 = bitcast i8* %19 to i32*
  store i32* %20, i32** %9, align 8
  store i32 0, i32* %4, align 4
  br label %21

21:                                               ; preds = %34, %0
  %22 = load i32, i32* %4, align 4
  %23 = load i32, i32* %3, align 4
  %24 = icmp slt i32 %22, %23
  br i1 %24, label %25, label %37

25:                                               ; preds = %21
  %26 = load i32*, i32** %8, align 8
  %27 = load i32, i32* %4, align 4
  %28 = sext i32 %27 to i64
  %29 = getelementptr inbounds i32, i32* %26, i64 %28
  store i32 0, i32* %29, align 4
  %30 = load i32*, i32** %9, align 8
  %31 = load i32, i32* %4, align 4
  %32 = sext i32 %31 to i64
  %33 = getelementptr inbounds i32, i32* %30, i64 %32
  store i32 0, i32* %33, align 4
  br label %34

34:                                               ; preds = %25
  %35 = load i32, i32* %4, align 4
  %36 = add nsw i32 %35, 1
  store i32 %36, i32* %4, align 4
  br label %21

37:                                               ; preds = %21
  store i32 0, i32* %4, align 4
  br label %38

38:                                               ; preds = %48, %37
  %39 = load i32, i32* %4, align 4
  %40 = load i32, i32* %3, align 4
  %41 = icmp slt i32 %39, %40
  br i1 %41, label %42, label %51

42:                                               ; preds = %38
  %43 = load i32*, i32** %8, align 8
  %44 = load i32, i32* %4, align 4
  %45 = sext i32 %44 to i64
  %46 = getelementptr inbounds i32, i32* %43, i64 %45
  %47 = call i32 (i8*, ...) @__isoc99_scanf(i8* getelementptr inbounds ([3 x i8], [3 x i8]* @.str, i64 0, i64 0), i32* %46)
  br label %48

48:                                               ; preds = %42
  %49 = load i32, i32* %4, align 4
  %50 = add nsw i32 %49, 1
  store i32 %50, i32* %4, align 4
  br label %38

51:                                               ; preds = %38
  %52 = load i32*, i32** %9, align 8
  %53 = load i32, i32* %3, align 4
  %54 = sub nsw i32 %53, 1
  %55 = sext i32 %54 to i64
  %56 = getelementptr inbounds i32, i32* %52, i64 %55
  store i32 1, i32* %56, align 4
  %57 = load i32, i32* %3, align 4
  %58 = sub nsw i32 %57, 2
  store i32 %58, i32* %4, align 4
  br label %59

59:                                               ; preds = %118, %51
  %60 = load i32, i32* %4, align 4
  %61 = icmp sge i32 %60, 0
  br i1 %61, label %62, label %121

62:                                               ; preds = %59
  %63 = load i32, i32* %4, align 4
  %64 = add nsw i32 %63, 1
  store i32 %64, i32* %5, align 4
  br label %65

65:                                               ; preds = %104, %62
  %66 = load i32, i32* %5, align 4
  %67 = load i32, i32* %3, align 4
  %68 = icmp slt i32 %66, %67
  br i1 %68, label %69, label %107

69:                                               ; preds = %65
  %70 = load i32*, i32** %8, align 8
  %71 = load i32, i32* %4, align 4
  %72 = sext i32 %71 to i64
  %73 = getelementptr inbounds i32, i32* %70, i64 %72
  %74 = load i32, i32* %73, align 4
  %75 = load i32*, i32** %8, align 8
  %76 = load i32, i32* %5, align 4
  %77 = sext i32 %76 to i64
  %78 = getelementptr inbounds i32, i32* %75, i64 %77
  %79 = load i32, i32* %78, align 4
  %80 = icmp sge i32 %74, %79
  br i1 %80, label %81, label %103

81:                                               ; preds = %69
  %82 = load i32*, i32** %9, align 8
  %83 = load i32, i32* %5, align 4
  %84 = sext i32 %83 to i64
  %85 = getelementptr inbounds i32, i32* %82, i64 %84
  %86 = load i32, i32* %85, align 4
  %87 = load i32*, i32** %9, align 8
  %88 = load i32, i32* %4, align 4
  %89 = sext i32 %88 to i64
  %90 = getelementptr inbounds i32, i32* %87, i64 %89
  %91 = load i32, i32* %90, align 4
  %92 = icmp sgt i32 %86, %91
  br i1 %92, label %93, label %103

93:                                               ; preds = %81
  %94 = load i32*, i32** %9, align 8
  %95 = load i32, i32* %5, align 4
  %96 = sext i32 %95 to i64
  %97 = getelementptr inbounds i32, i32* %94, i64 %96
  %98 = load i32, i32* %97, align 4
  %99 = load i32*, i32** %9, align 8
  %100 = load i32, i32* %4, align 4
  %101 = sext i32 %100 to i64
  %102 = getelementptr inbounds i32, i32* %99, i64 %101
  store i32 %98, i32* %102, align 4
  br label %103

103:                                              ; preds = %93, %81, %69
  br label %104

104:                                              ; preds = %103
  %105 = load i32, i32* %5, align 4
  %106 = add nsw i32 %105, 1
  store i32 %106, i32* %5, align 4
  br label %65

107:                                              ; preds = %65
  %108 = load i32*, i32** %9, align 8
  %109 = load i32, i32* %4, align 4
  %110 = sext i32 %109 to i64
  %111 = getelementptr inbounds i32, i32* %108, i64 %110
  %112 = load i32, i32* %111, align 4
  %113 = add nsw i32 %112, 1
  store i32 %113, i32* %111, align 4
  %114 = load i32, i32* %4, align 4
  %115 = icmp eq i32 %114, 0
  br i1 %115, label %116, label %117

116:                                              ; preds = %107
  br label %121

117:                                              ; preds = %107
  br label %118

118:                                              ; preds = %117
  %119 = load i32, i32* %4, align 4
  %120 = add nsw i32 %119, -1
  store i32 %120, i32* %4, align 4
  br label %59

121:                                              ; preds = %116, %59
  store i32 0, i32* %6, align 4
  %122 = load i32*, i32** %9, align 8
  %123 = getelementptr inbounds i32, i32* %122, i64 0
  %124 = load i32, i32* %123, align 4
  store i32 %124, i32* %7, align 4
  store i32 1, i32* %4, align 4
  br label %125

125:                                              ; preds = %145, %121
  %126 = load i32, i32* %4, align 4
  %127 = load i32, i32* %3, align 4
  %128 = icmp slt i32 %126, %127
  br i1 %128, label %129, label %148

129:                                              ; preds = %125
  %130 = load i32*, i32** %9, align 8
  %131 = load i32, i32* %4, align 4
  %132 = sext i32 %131 to i64
  %133 = getelementptr inbounds i32, i32* %130, i64 %132
  %134 = load i32, i32* %133, align 4
  %135 = load i32, i32* %7, align 4
  %136 = icmp sgt i32 %134, %135
  br i1 %136, label %137, label %144

137:                                              ; preds = %129
  %138 = load i32, i32* %4, align 4
  store i32 %138, i32* %6, align 4
  %139 = load i32*, i32** %9, align 8
  %140 = load i32, i32* %4, align 4
  %141 = sext i32 %140 to i64
  %142 = getelementptr inbounds i32, i32* %139, i64 %141
  %143 = load i32, i32* %142, align 4
  store i32 %143, i32* %7, align 4
  br label %144

144:                                              ; preds = %137, %129
  br label %145

145:                                              ; preds = %144
  %146 = load i32, i32* %4, align 4
  %147 = add nsw i32 %146, 1
  store i32 %147, i32* %4, align 4
  br label %125

148:                                              ; preds = %125
  %149 = load i32*, i32** %9, align 8
  %150 = load i32, i32* %6, align 4
  %151 = sext i32 %150 to i64
  %152 = getelementptr inbounds i32, i32* %149, i64 %151
  %153 = load i32, i32* %152, align 4
  %154 = call i32 (i8*, ...) @printf(i8* getelementptr inbounds ([3 x i8], [3 x i8]* @.str, i64 0, i64 0), i32 %153)
  %155 = load i32, i32* %1, align 4
  ret i32 %155
}

declare dso_local i32 @__isoc99_scanf(i8*, ...) #1

; Function Attrs: nounwind
declare dso_local noalias i8* @malloc(i64) #2

declare dso_local i32 @printf(i8*, ...) #1


!llvm.module.flags = !{!0}
!llvm.ident = !{!1}

!0 = !{i32 1, !"wchar_size", i32 4}
!1 = !{!"clang version 10.0.0-4ubuntu1 "}
